; Function Attrs: mustprogress uwtable
define void @_ZN14VrmlTranslator6ParserC2EPNS_7ScannerE(ptr noundef nonnull align 8 dereferenceable(208) initializes((72, 76), (80, 88)) %0, ptr noundef %1) unnamed_addr #0 align 2 personality ptr @__gxx_personality_v0 {
  %3 = getelementptr inbounds nuw i8, ptr %0, i64 72
  store i32 0, ptr %3, align 8
  %4 = getelementptr inbounds nuw i8, ptr %0, i64 80
  store ptr null, ptr %4, align 8
  %5 = getelementptr inbounds nuw i8, ptr %0, i64 88
  store ptr %3, ptr %5, align 8
  %6 = getelementptr inbounds nuw i8, ptr %0, i64 96
  store ptr %3, ptr %6, align 8
  %7 = getelementptr inbounds nuw i8, ptr %0, i64 104
  store i64 0, ptr %7, align 8
  %8 = getelementptr inbounds nuw i8, ptr %0, i64 120
  store i32 0, ptr %8, align 8
  %9 = getelementptr inbounds nuw i8, ptr %0, i64 128
  store ptr null, ptr %9, align 8
  %10 = getelementptr inbounds nuw i8, ptr %0, i64 136
  store ptr %8, ptr %10, align 8
  %11 = getelementptr inbounds nuw i8, ptr %0, i64 144
  store ptr %8, ptr %11, align 8
  %12 = getelementptr inbounds nuw i8, ptr %0, i64 152
  store i64 0, ptr %12, align 8
  %13 = getelementptr inbounds nuw i8, ptr %0, i64 168
  store i32 0, ptr %13, align 8
  %14 = getelementptr inbounds nuw i8, ptr %0, i64 176
  store ptr null, ptr %14, align 8
  %15 = getelementptr inbounds nuw i8, ptr %0, i64 184
  store ptr %13, ptr %15, align 8
  %16 = getelementptr inbounds nuw i8, ptr %0, i64 192
  store ptr %13, ptr %16, align 8
  %17 = getelementptr inbounds nuw i8, ptr %0, i64 200
  store i64 0, ptr %17, align 8
  store i32 85, ptr %0, align 8
  %18 = getelementptr inbounds nuw i8, ptr %0, i64 8
  store ptr null, ptr %18, align 8
  %19 = getelementptr inbounds nuw i8, ptr %0, i64 40
  %20 = getelementptr inbounds nuw i8, ptr %0, i64 20
  tail call void @llvm.memset.p0.i64(ptr noundef nonnull align 8 dereferenceable(16) %19, i8 0, i64 16, i1 false)
  store i32 2, ptr %20, align 4
  %21 = getelementptr inbounds nuw i8, ptr %0, i64 16
  store i32 2, ptr %21, align 8
  %22 = getelementptr inbounds nuw i8, ptr %0, i64 24
  store ptr %1, ptr %22, align 8
  %23 = invoke noalias noundef nonnull dereferenceable(16) ptr @_Znwm(i64 noundef 16) #17
          to label %24 unwind label %27

24:                                               ; preds = %2
  invoke void @_ZN14VrmlTranslator6ErrorsC1Ev(ptr noundef nonnull align 8 dereferenceable(16) %23)
          to label %25 unwind label %29

25:                                               ; preds = %24
  %26 = getelementptr inbounds nuw i8, ptr %0, i64 32
  store ptr %23, ptr %26, align 8
  ret void

27:                                               ; preds = %2
  %28 = landingpad { ptr, i32 }
          cleanup
  br label %31

29:                                               ; preds = %24
  %30 = landingpad { ptr, i32 }
          cleanup
  tail call void @_ZdlPv(ptr noundef nonnull %23) #18
  br label %31

31:                                               ; preds = %29, %27
  %.pn = phi { ptr, i32 } [ %30, %29 ], [ %28, %27 ]
  %32 = getelementptr inbounds nuw i8, ptr %0, i64 160
  %33 = getelementptr inbounds nuw i8, ptr %0, i64 112
  %34 = getelementptr inbounds nuw i8, ptr %0, i64 64
  tail call void @_ZNSt3setI7QStringSt4lessIS0_ESaIS0_EED2Ev(ptr noundef nonnull align 8 dereferenceable(48) %32) #14
  tail call void @_ZNSt3setI7QStringSt4lessIS0_ESaIS0_EED2Ev(ptr noundef nonnull align 8 dereferenceable(48) %33) #14
  tail call void @_ZNSt3mapI7QStringS0_St4lessIS0_ESaISt4pairIKS0_S0_EEED2Ev(ptr noundef nonnull align 8 dereferenceable(48) %34) #14
  resume { ptr, i32 } %.pn
}